target datalayout = "e-m:e-p270:32:32-p271:32:32-p272:64:64-i64:64-i128:128-f80:128-n8:16:32:64-S128"
target triple = "x86_64-pc-linux-gnu"

%struct.unicode_cpt_flags = type { i16 }
%"class.std::vector.4" = type { %"struct.std::_Vector_base.5" }
%"struct.std::_Vector_base.5" = type { %"struct.std::_Vector_base<unicode_cpt_flags, std::allocator<unicode_cpt_flags>>::_Vector_impl" }
%"struct.std::_Vector_base<unicode_cpt_flags, std::allocator<unicode_cpt_flags>>::_Vector_impl" = type { %"struct.std::_Vector_base<unicode_cpt_flags, std::allocator<unicode_cpt_flags>>::_Vector_impl_data" }
%"struct.std::_Vector_base<unicode_cpt_flags, std::allocator<unicode_cpt_flags>>::_Vector_impl_data" = type { ptr, ptr, ptr }

@_ZZ26unicode_cpt_flags_from_cptjE5undef = internal global %struct.unicode_cpt_flags zeroinitializer, align 2
@_ZGVZ26unicode_cpt_flags_from_cptjE5undef = internal global i64 0, align 8
@_ZZ26unicode_cpt_flags_from_cptjE9cpt_flags = internal global %"class.std::vector.4" zeroinitializer, align 8
@_ZGVZ26unicode_cpt_flags_from_cptjE9cpt_flags = internal global i64 0, align 8
@__dso_handle = external hidden global i8

; Function Attrs: mustprogress nounwind uwtable
define linkonce_odr noundef nonnull align 2 dereferenceable(2) ptr @_ZNKSt6vectorI17unicode_cpt_flagsSaIS0_EEixEm(ptr noundef nonnull align 8 dereferenceable(24) %0, i64 noundef %1) #0 comdat align 2 {
  %3 = alloca ptr, align 8
  %4 = alloca i64, align 8
  store ptr %0, ptr %3, align 8, !tbaa !63
  store i64 %1, ptr %4, align 8, !tbaa !6
  %5 = load ptr, ptr %3, align 8
  %6 = getelementptr inbounds nuw %"struct.std::_Vector_base.5", ptr %5, i32 0, i32 0
  %7 = getelementptr inbounds nuw %"struct.std::_Vector_base<unicode_cpt_flags, std::allocator<unicode_cpt_flags>>::_Vector_impl_data", ptr %6, i32 0, i32 0
  %8 = load ptr, ptr %7, align 8, !tbaa !65
  %9 = load i64, ptr %4, align 8, !tbaa !6
  %10 = getelementptr inbounds nuw %struct.unicode_cpt_flags, ptr %8, i64 %9
  ret ptr %10
}

; Function Attrs: mustprogress nounwind uwtable
define linkonce_odr noundef i64 @_ZNKSt6vectorI17unicode_cpt_flagsSaIS0_EE4sizeEv(ptr noundef nonnull align 8 dereferenceable(24) %0) #0 comdat align 2 {
  %2 = alloca ptr, align 8
  store ptr %0, ptr %2, align 8, !tbaa !63
  %3 = load ptr, ptr %2, align 8
  %4 = getelementptr inbounds nuw %"struct.std::_Vector_base.5", ptr %3, i32 0, i32 0
  %5 = getelementptr inbounds nuw %"struct.std::_Vector_base<unicode_cpt_flags, std::allocator<unicode_cpt_flags>>::_Vector_impl_data", ptr %4, i32 0, i32 1
  %6 = load ptr, ptr %5, align 8, !tbaa !67
  %7 = getelementptr inbounds nuw %"struct.std::_Vector_base.5", ptr %3, i32 0, i32 0
  %8 = getelementptr inbounds nuw %"struct.std::_Vector_base<unicode_cpt_flags, std::allocator<unicode_cpt_flags>>::_Vector_impl_data", ptr %7, i32 0, i32 0
  %9 = load ptr, ptr %8, align 8, !tbaa !65
  %10 = ptrtoint ptr %6 to i64
  %11 = ptrtoint ptr %9 to i64
  %12 = sub i64 %10, %11
  %13 = sdiv exact i64 %12, 2
  ret i64 %13
}

; Function Attrs: inlinehint mustprogress nounwind uwtable
define linkonce_odr void @_ZN17unicode_cpt_flagsC2Et(ptr noundef nonnull align 2 dereferenceable(2) %0, i16 noundef zeroext %1) unnamed_addr #10 comdat align 2 {
  %3 = alloca ptr, align 8
  %4 = alloca i16, align 2
  store ptr %0, ptr %3, align 8, !tbaa !46
  store i16 %1, ptr %4, align 2, !tbaa !48
  %5 = load ptr, ptr %3, align 8
  %6 = load i16, ptr %4, align 2, !tbaa !48
  store i16 %6, ptr %5, align 2, !tbaa !48
  ret void
}

; Function Attrs: mustprogress uwtable
define i16 @_Z26unicode_cpt_flags_from_cptj(i32 noundef %0) #3 personality ptr @__gxx_personality_v0 {
  %2 = alloca %struct.unicode_cpt_flags, align 2
  %3 = alloca i32, align 4
  %4 = alloca ptr, align 8
  %5 = alloca i32, align 4
  store i32 %0, ptr %3, align 4, !tbaa !13
  %6 = load atomic i8, ptr @_ZGVZ26unicode_cpt_flags_from_cptjE5undef acquire, align 8
  %7 = icmp eq i8 %6, 0
  br i1 %7, label %8, label %14, !prof !44

8:                                                ; preds = %1
  %9 = call i32 @__cxa_guard_acquire(ptr @_ZGVZ26unicode_cpt_flags_from_cptjE5undef) #9
  %10 = icmp ne i32 %9, 0
  br i1 %10, label %11, label %14

11:                                               ; preds = %8
  invoke void @_ZN17unicode_cpt_flagsC2Et(ptr noundef nonnull align 2 dereferenceable(2) @_ZZ26unicode_cpt_flags_from_cptjE5undef, i16 noundef zeroext 1)
          to label %12 unwind label %37

12:                                               ; preds = %11
  %13 = call ptr @llvm.invariant.start.p0(i64 2, ptr @_ZZ26unicode_cpt_flags_from_cptjE5undef)
  call void @__cxa_guard_release(ptr @_ZGVZ26unicode_cpt_flags_from_cptjE5undef) #9
  br label %14

14:                                               ; preds = %12, %8, %1
  %15 = load atomic i8, ptr @_ZGVZ26unicode_cpt_flags_from_cptjE9cpt_flags acquire, align 8
  %16 = icmp eq i8 %15, 0
  br i1 %16, label %17, label %23, !prof !44

17:                                               ; preds = %14
  %18 = call i32 @__cxa_guard_acquire(ptr @_ZGVZ26unicode_cpt_flags_from_cptjE9cpt_flags) #9
  %19 = icmp ne i32 %18, 0
  br i1 %19, label %20, label %23

20:                                               ; preds = %17
  invoke void @_ZL23unicode_cpt_flags_arrayv(ptr dead_on_unwind writable sret(%"class.std::vector.4") align 8 @_ZZ26unicode_cpt_flags_from_cptjE9cpt_flags)
          to label %21 unwind label %41

21:                                               ; preds = %20
  %22 = call i32 @__cxa_atexit(ptr @_ZNSt6vectorI17unicode_cpt_flagsSaIS0_EED2Ev, ptr @_ZZ26unicode_cpt_flags_from_cptjE9cpt_flags, ptr @__dso_handle) #9
  call void @__cxa_guard_release(ptr @_ZGVZ26unicode_cpt_flags_from_cptjE9cpt_flags) #9
  br label %23

23:                                               ; preds = %21, %17, %14
  %24 = load i32, ptr %3, align 4, !tbaa !13
  %25 = zext i32 %24 to i64
  %26 = call noundef i64 @_ZNKSt6vectorI17unicode_cpt_flagsSaIS0_EE4sizeEv(ptr noundef nonnull align 8 dereferenceable(24) @_ZZ26unicode_cpt_flags_from_cptjE9cpt_flags) #9
  %27 = icmp ult i64 %25, %26
  br i1 %27, label %28, label %32

28:                                               ; preds = %23
  %29 = load i32, ptr %3, align 4, !tbaa !13
  %30 = zext i32 %29 to i64
  %31 = call noundef nonnull align 2 dereferenceable(2) ptr @_ZNKSt6vectorI17unicode_cpt_flagsSaIS0_EEixEm(ptr noundef nonnull align 8 dereferenceable(24) @_ZZ26unicode_cpt_flags_from_cptjE9cpt_flags, i64 noundef %30) #9
  br label %33

32:                                               ; preds = %23
  br label %33

33:                                               ; preds = %32, %28
  %34 = phi ptr [ %31, %28 ], [ @_ZZ26unicode_cpt_flags_from_cptjE5undef, %32 ]
  call void @llvm.memcpy.p0.p0.i64(ptr align 2 %2, ptr align 2 %34, i64 2, i1 false), !tbaa.struct !45
  %35 = getelementptr inbounds nuw %struct.unicode_cpt_flags, ptr %2, i32 0, i32 0
  %36 = load i16, ptr %35, align 2
  ret i16 %36

37:                                               ; preds = %11
  %38 = landingpad { ptr, i32 }
          cleanup
  %39 = extractvalue { ptr, i32 } %38, 0
  store ptr %39, ptr %4, align 8
  %40 = extractvalue { ptr, i32 } %38, 1
  store i32 %40, ptr %5, align 4
  call void @__cxa_guard_abort(ptr @_ZGVZ26unicode_cpt_flags_from_cptjE5undef) #9
  br label %45

41:                                               ; preds = %20
  %42 = landingpad { ptr, i32 }
          cleanup
  %43 = extractvalue { ptr, i32 } %42, 0
  store ptr %43, ptr %4, align 8
  %44 = extractvalue { ptr, i32 } %42, 1
  store i32 %44, ptr %5, align 4
  call void @__cxa_guard_abort(ptr @_ZGVZ26unicode_cpt_flags_from_cptjE9cpt_flags) #9
  br label %45

45:                                               ; preds = %41, %37
  %46 = load ptr, ptr %4, align 8
  %47 = load i32, ptr %5, align 4
  %48 = insertvalue { ptr, i32 } poison, ptr %46, 0
  %49 = insertvalue { ptr, i32 } %48, i32 %47, 1
  resume { ptr, i32 } %49
}