; Function Attrs: mustprogress uwtable
define i16 @_Z26unicode_cpt_flags_from_cptj(i32 noundef %0) local_unnamed_addr #3 personality ptr @__gxx_personality_v0 {
  %2 = load atomic i8, ptr @_ZGVZ26unicode_cpt_flags_from_cptjE5undef acquire, align 8
  %3 = icmp eq i8 %2, 0
  br i1 %3, label %4, label %8, !prof !33

4:                                                ; preds = %1
  %5 = tail call i32 @__cxa_guard_acquire(ptr nonnull @_ZGVZ26unicode_cpt_flags_from_cptjE5undef) #30
  %.not = icmp eq i32 %5, 0
  br i1 %.not, label %8, label %6

6:                                                ; preds = %4
  store i16 1, ptr @_ZZ26unicode_cpt_flags_from_cptjE5undef, align 2, !tbaa !34
  %7 = tail call ptr @llvm.invariant.start.p0(i64 2, ptr nonnull @_ZZ26unicode_cpt_flags_from_cptjE5undef)
  tail call void @__cxa_guard_release(ptr nonnull @_ZGVZ26unicode_cpt_flags_from_cptjE5undef) #30
  br label %8

8:                                                ; preds = %6, %4, %1
  %9 = load atomic i8, ptr @_ZGVZ26unicode_cpt_flags_from_cptjE9cpt_flags acquire, align 8
  %10 = icmp eq i8 %9, 0
  br i1 %10, label %11, label %16, !prof !33

11:                                               ; preds = %8
  %12 = tail call i32 @__cxa_guard_acquire(ptr nonnull @_ZGVZ26unicode_cpt_flags_from_cptjE9cpt_flags) #30
  %.not3 = icmp eq i32 %12, 0
  br i1 %.not3, label %16, label %13

13:                                               ; preds = %11
  invoke fastcc void @_ZL23unicode_cpt_flags_arrayv()
          to label %14 unwind label %26

14:                                               ; preds = %13
  %15 = tail call i32 @__cxa_atexit(ptr nonnull @_ZNSt6vectorI17unicode_cpt_flagsSaIS0_EED2Ev, ptr nonnull @_ZZ26unicode_cpt_flags_from_cptjE9cpt_flags, ptr nonnull @__dso_handle) #30
  tail call void @__cxa_guard_release(ptr nonnull @_ZGVZ26unicode_cpt_flags_from_cptjE9cpt_flags) #30
  br label %16

16:                                               ; preds = %14, %11, %8
  %17 = zext i32 %0 to i64
  %18 = load ptr, ptr getelementptr inbounds nuw (i8, ptr @_ZZ26unicode_cpt_flags_from_cptjE9cpt_flags, i64 8), align 8, !tbaa !36
  %19 = load ptr, ptr @_ZZ26unicode_cpt_flags_from_cptjE9cpt_flags, align 8, !tbaa !39
  %20 = ptrtoint ptr %18 to i64
  %21 = ptrtoint ptr %19 to i64
  %22 = sub i64 %20, %21
  %23 = ashr exact i64 %22, 1
  %24 = icmp ugt i64 %23, %17
  %25 = getelementptr inbounds nuw %struct.unicode_cpt_flags, ptr %19, i64 %17
  %spec.select = select i1 %24, ptr %25, ptr @_ZZ26unicode_cpt_flags_from_cptjE5undef
  %.sroa.0.0.copyload = load i16, ptr %spec.select, align 2, !tbaa !12
  ret i16 %.sroa.0.0.copyload

26:                                               ; preds = %13
  %27 = landingpad { ptr, i32 }
          cleanup
  tail call void @__cxa_guard_abort(ptr nonnull @_ZGVZ26unicode_cpt_flags_from_cptjE9cpt_flags) #30
  resume { ptr, i32 } %27
}